; Function Attrs: mustprogress uwtable
define internal fastcc void @"_ZZN5faiss28reset_AdditiveQuantizerIndexEPNS_5IndexEENK3$_0clERSt6vectorIPNS_17AdditiveQuantizerESaIS5_EE"(ptr %.0.val, ptr readnone %.8.val) unnamed_addr #0 align 2 {
  %.not4 = icmp eq ptr %.0.val, %.8.val
  br i1 %.not4, label %._crit_edge, label %.lr.ph

.lr.ph:                                           ; preds = %0, %.lr.ph
  %.sroa.01.05 = phi ptr [ %4, %.lr.ph ], [ %.0.val, %0 ]
  %1 = load ptr, ptr %.sroa.01.05, align 8
  %2 = tail call noundef ptr @_ZN5faiss15clone_QuantizerEPKNS_9QuantizerE(ptr noundef %1)
  %3 = tail call ptr @__dynamic_cast(ptr nonnull %2, ptr nonnull @_ZTIN5faiss9QuantizerE, ptr nonnull @_ZTIN5faiss17AdditiveQuantizerE, i64 0) #20
  store ptr %3, ptr %.sroa.01.05, align 8
  %4 = getelementptr inbounds i8, ptr %.sroa.01.05, i64 8
  %.not = icmp eq ptr %4, %.8.val
  br i1 %.not, label %._crit_edge, label %.lr.ph

._crit_edge:                                      ; preds = %.lr.ph, %0
  ret void
}